target datalayout = "e-m:e-p270:32:32-p271:32:32-p272:64:64-i64:64-i128:128-f80:128-n8:16:32:64-S128"
target triple = "x86_64-pc-linux-gnu"

%struct.evp_md_st = type { i32, i32, i32, i64, i32, ptr, ptr, ptr, ptr, ptr, i32, i32, ptr, i32, ptr, ptr, ptr, %struct.CRYPTO_REF_COUNT, ptr, ptr, ptr, ptr, ptr, ptr, ptr, ptr, ptr, ptr, ptr, ptr, ptr, ptr, ptr }
%struct.CRYPTO_REF_COUNT = type { i32 }

; Function Attrs: nounwind uwtable
define i32 @EVP_MD_get_params(ptr noundef %0, ptr noundef %1) #0 {
  %3 = alloca i32, align 4
  %4 = alloca ptr, align 8
  %5 = alloca ptr, align 8
  store ptr %0, ptr %4, align 8, !tbaa !28
  store ptr %1, ptr %5, align 8, !tbaa !42
  %6 = load ptr, ptr %4, align 8, !tbaa !28
  %7 = icmp ne ptr %6, null
  br i1 %7, label %8, label %19

8:                                                ; preds = %2
  %9 = load ptr, ptr %4, align 8, !tbaa !28
  %10 = getelementptr inbounds nuw %struct.evp_md_st, ptr %9, i32 0, i32 27
  %11 = load ptr, ptr %10, align 8, !tbaa !79
  %12 = icmp ne ptr %11, null
  br i1 %12, label %13, label %19

13:                                               ; preds = %8
  %14 = load ptr, ptr %4, align 8, !tbaa !28
  %15 = getelementptr inbounds nuw %struct.evp_md_st, ptr %14, i32 0, i32 27
  %16 = load ptr, ptr %15, align 8, !tbaa !79
  %17 = load ptr, ptr %5, align 8, !tbaa !42
  %18 = call i32 %16(ptr noundef %17)
  store i32 %18, ptr %3, align 4
  br label %20

19:                                               ; preds = %8, %2
  store i32 0, ptr %3, align 4
  br label %20

20:                                               ; preds = %19, %13
  %21 = load i32, ptr %3, align 4
  ret i32 %21
}