; Function Attrs: nounwind uwtable
define i32 @EVP_MD_get_params(ptr noundef readonly captures(address_is_null) %0, ptr noundef %1) local_unnamed_addr #0 {
  %.not = icmp eq ptr %0, null
  br i1 %.not, label %8, label %3

3:                                                ; preds = %2
  %4 = getelementptr inbounds nuw i8, ptr %0, i64 200
  %5 = load ptr, ptr %4, align 8, !tbaa !70
  %.not6 = icmp eq ptr %5, null
  br i1 %.not6, label %8, label %6

6:                                                ; preds = %3
  %7 = tail call i32 %5(ptr noundef %1) #8
  br label %8

8:                                                ; preds = %2, %3, %6
  %.0 = phi i32 [ %7, %6 ], [ 0, %3 ], [ 0, %2 ]
  ret i32 %.0
}